target datalayout = "e-m:e-p270:32:32-p271:32:32-p272:64:64-i64:64-i128:128-f80:128-n8:16:32:64-S128"
target triple = "x86_64-unknown-linux-gnu"

%class.b3Vector3 = type { %union.anon }
%union.anon = type { [4 x float] }

; Function Attrs: mustprogress nounwind uwtable
define linkonce_odr dso_local void @_ZN9b3Vector38setValueERKfS1_S1_(ptr noundef nonnull align 16 dereferenceable(16) %this, ptr noundef nonnull align 4 dereferenceable(4) %_x, ptr noundef nonnull align 4 dereferenceable(4) %_y, ptr noundef nonnull align 4 dereferenceable(4) %_z) #4 comdat align 2 {
entry:
  %this.addr = alloca ptr, align 8
  %_x.addr = alloca ptr, align 8
  %_y.addr = alloca ptr, align 8
  %_z.addr = alloca ptr, align 8
  store ptr %this, ptr %this.addr, align 8
  store ptr %_x, ptr %_x.addr, align 8
  store ptr %_y, ptr %_y.addr, align 8
  store ptr %_z, ptr %_z.addr, align 8
  %this1 = load ptr, ptr %this.addr, align 8
  %0 = load ptr, ptr %_x.addr, align 8
  %1 = load float, ptr %0, align 4
  %2 = getelementptr inbounds %class.b3Vector3, ptr %this1, i32 0, i32 0
  %arrayidx = getelementptr inbounds [4 x float], ptr %2, i64 0, i64 0
  store float %1, ptr %arrayidx, align 16
  %3 = load ptr, ptr %_y.addr, align 8
  %4 = load float, ptr %3, align 4
  %5 = getelementptr inbounds %class.b3Vector3, ptr %this1, i32 0, i32 0
  %arrayidx2 = getelementptr inbounds [4 x float], ptr %5, i64 0, i64 1
  store float %4, ptr %arrayidx2, align 4
  %6 = load ptr, ptr %_z.addr, align 8
  %7 = load float, ptr %6, align 4
  %8 = getelementptr inbounds %class.b3Vector3, ptr %this1, i32 0, i32 0
  %arrayidx3 = getelementptr inbounds [4 x float], ptr %8, i64 0, i64 2
  store float %7, ptr %arrayidx3, align 8
  %9 = getelementptr inbounds %class.b3Vector3, ptr %this1, i32 0, i32 0
  %arrayidx4 = getelementptr inbounds [4 x float], ptr %9, i64 0, i64 3
  store float 0.000000e+00, ptr %arrayidx4, align 4
  ret void
}

; Function Attrs: mustprogress nounwind uwtable
define linkonce_odr dso_local noundef float @_ZNK9b3Vector33dotERKS_(ptr noundef nonnull align 16 dereferenceable(16) %this, ptr noundef nonnull align 16 dereferenceable(16) %v) #4 comdat align 2 {
entry:
  %this.addr = alloca ptr, align 8
  %v.addr = alloca ptr, align 8
  store ptr %this, ptr %this.addr, align 8
  store ptr %v, ptr %v.addr, align 8
  %this1 = load ptr, ptr %this.addr, align 8
  %0 = getelementptr inbounds %class.b3Vector3, ptr %this1, i32 0, i32 0
  %arrayidx = getelementptr inbounds [4 x float], ptr %0, i64 0, i64 0
  %1 = load float, ptr %arrayidx, align 16
  %2 = load ptr, ptr %v.addr, align 8
  %3 = getelementptr inbounds %class.b3Vector3, ptr %2, i32 0, i32 0
  %arrayidx2 = getelementptr inbounds [4 x float], ptr %3, i64 0, i64 0
  %4 = load float, ptr %arrayidx2, align 16
  %5 = getelementptr inbounds %class.b3Vector3, ptr %this1, i32 0, i32 0
  %arrayidx3 = getelementptr inbounds [4 x float], ptr %5, i64 0, i64 1
  %6 = load float, ptr %arrayidx3, align 4
  %7 = load ptr, ptr %v.addr, align 8
  %8 = getelementptr inbounds %class.b3Vector3, ptr %7, i32 0, i32 0
  %arrayidx4 = getelementptr inbounds [4 x float], ptr %8, i64 0, i64 1
  %9 = load float, ptr %arrayidx4, align 4
  %mul5 = fmul float %6, %9
  %10 = call float @llvm.fmuladd.f32(float %1, float %4, float %mul5)
  %11 = getelementptr inbounds %class.b3Vector3, ptr %this1, i32 0, i32 0
  %arrayidx6 = getelementptr inbounds [4 x float], ptr %11, i64 0, i64 2
  %12 = load float, ptr %arrayidx6, align 8
  %13 = load ptr, ptr %v.addr, align 8
  %14 = getelementptr inbounds %class.b3Vector3, ptr %13, i32 0, i32 0
  %arrayidx7 = getelementptr inbounds [4 x float], ptr %14, i64 0, i64 2
  %15 = load float, ptr %arrayidx7, align 8
  %16 = call float @llvm.fmuladd.f32(float %12, float %15, float %10)
  ret float %16
}

; Function Attrs: mustprogress uwtable
define linkonce_odr dso_local { <2 x float>, <2 x float> } @_Z13b3MakeVector3fff(float noundef %x, float noundef %y, float noundef %z) #0 comdat {
entry:
  %retval = alloca %class.b3Vector3, align 16
  %x.addr = alloca float, align 4
  %y.addr = alloca float, align 4
  %z.addr = alloca float, align 4
  store float %x, ptr %x.addr, align 4
  store float %y, ptr %y.addr, align 4
  store float %z, ptr %z.addr, align 4
  call void @_ZN9b3Vector38setValueERKfS1_S1_(ptr noundef nonnull align 16 dereferenceable(16) %retval, ptr noundef nonnull align 4 dereferenceable(4) %x.addr, ptr noundef nonnull align 4 dereferenceable(4) %y.addr, ptr noundef nonnull align 4 dereferenceable(4) %z.addr)
  %coerce.dive = getelementptr inbounds %class.b3Vector3, ptr %retval, i32 0, i32 0
  %coerce.dive1 = getelementptr inbounds %union.anon, ptr %coerce.dive, i32 0, i32 0
  %0 = load { <2 x float>, <2 x float> }, ptr %coerce.dive1, align 16
  ret { <2 x float>, <2 x float> } %0
}

; Function Attrs: mustprogress nounwind uwtable
define linkonce_odr dso_local noundef float @_ZSt4sqrtf(float noundef %__x) #4 comdat {
entry:
  %__x.addr = alloca float, align 4
  store float %__x, ptr %__x.addr, align 4
  %0 = load float, ptr %__x.addr, align 4
  %call = call float @sqrtf(float noundef %0) #13
  ret float %call
}

; Function Attrs: mustprogress uwtable
define linkonce_odr dso_local noundef float @_Z5b3DotRK9b3Vector3S1_(ptr noundef nonnull align 16 dereferenceable(16) %v1, ptr noundef nonnull align 16 dereferenceable(16) %v2) #0 comdat {
entry:
  %v1.addr = alloca ptr, align 8
  %v2.addr = alloca ptr, align 8
  store ptr %v1, ptr %v1.addr, align 8
  store ptr %v2, ptr %v2.addr, align 8
  %0 = load ptr, ptr %v1.addr, align 8
  %1 = load ptr, ptr %v2.addr, align 8
  %call = call noundef float @_ZNK9b3Vector33dotERKS_(ptr noundef nonnull align 16 dereferenceable(16) %0, ptr noundef nonnull align 16 dereferenceable(16) %1)
  ret float %call
}

; Function Attrs: mustprogress uwtable
define linkonce_odr dso_local { <2 x float>, <2 x float> } @_ZmiRK9b3Vector3S1_(ptr noundef nonnull align 16 dereferenceable(16) %v1, ptr noundef nonnull align 16 dereferenceable(16) %v2) #6 comdat {
entry:
  %retval = alloca %class.b3Vector3, align 16
  %v1.addr = alloca ptr, align 8
  %v2.addr = alloca ptr, align 8
  store ptr %v1, ptr %v1.addr, align 8
  store ptr %v2, ptr %v2.addr, align 8
  %0 = load ptr, ptr %v1.addr, align 8
  %1 = getelementptr inbounds %class.b3Vector3, ptr %0, i32 0, i32 0
  %arrayidx = getelementptr inbounds [4 x float], ptr %1, i64 0, i64 0
  %2 = load float, ptr %arrayidx, align 16
  %3 = load ptr, ptr %v2.addr, align 8
  %4 = getelementptr inbounds %class.b3Vector3, ptr %3, i32 0, i32 0
  %arrayidx1 = getelementptr inbounds [4 x float], ptr %4, i64 0, i64 0
  %5 = load float, ptr %arrayidx1, align 16
  %sub = fsub float %2, %5
  %6 = load ptr, ptr %v1.addr, align 8
  %7 = getelementptr inbounds %class.b3Vector3, ptr %6, i32 0, i32 0
  %arrayidx2 = getelementptr inbounds [4 x float], ptr %7, i64 0, i64 1
  %8 = load float, ptr %arrayidx2, align 4
  %9 = load ptr, ptr %v2.addr, align 8
  %10 = getelementptr inbounds %class.b3Vector3, ptr %9, i32 0, i32 0
  %arrayidx3 = getelementptr inbounds [4 x float], ptr %10, i64 0, i64 1
  %11 = load float, ptr %arrayidx3, align 4
  %sub4 = fsub float %8, %11
  %12 = load ptr, ptr %v1.addr, align 8
  %13 = getelementptr inbounds %class.b3Vector3, ptr %12, i32 0, i32 0
  %arrayidx5 = getelementptr inbounds [4 x float], ptr %13, i64 0, i64 2
  %14 = load float, ptr %arrayidx5, align 8
  %15 = load ptr, ptr %v2.addr, align 8
  %16 = getelementptr inbounds %class.b3Vector3, ptr %15, i32 0, i32 0
  %arrayidx6 = getelementptr inbounds [4 x float], ptr %16, i64 0, i64 2
  %17 = load float, ptr %arrayidx6, align 8
  %sub7 = fsub float %14, %17
  %call = call { <2 x float>, <2 x float> } @_Z13b3MakeVector3fff(float noundef %sub, float noundef %sub4, float noundef %sub7)
  %coerce.dive = getelementptr inbounds %class.b3Vector3, ptr %retval, i32 0, i32 0
  %coerce.dive8 = getelementptr inbounds %union.anon, ptr %coerce.dive, i32 0, i32 0
  %18 = getelementptr inbounds { <2 x float>, <2 x float> }, ptr %coerce.dive8, i32 0, i32 0
  %19 = extractvalue { <2 x float>, <2 x float> } %call, 0
  store <2 x float> %19, ptr %18, align 16
  %20 = getelementptr inbounds { <2 x float>, <2 x float> }, ptr %coerce.dive8, i32 0, i32 1
  %21 = extractvalue { <2 x float>, <2 x float> } %call, 1
  store <2 x float> %21, ptr %20, align 8
  %coerce.dive9 = getelementptr inbounds %class.b3Vector3, ptr %retval, i32 0, i32 0
  %coerce.dive10 = getelementptr inbounds %union.anon, ptr %coerce.dive9, i32 0, i32 0
  %22 = load { <2 x float>, <2 x float> }, ptr %coerce.dive10, align 16
  ret { <2 x float>, <2 x float> } %22
}

; Function Attrs: mustprogress uwtable
define dso_local noundef zeroext i1 @_Z16sphere_intersectRK9b3Vector3fS1_S1_Rf(ptr noundef nonnull align 16 dereferenceable(16) %spherePos, float noundef %radius, ptr noundef nonnull align 16 dereferenceable(16) %rayFrom, ptr noundef nonnull align 16 dereferenceable(16) %rayTo, ptr noundef nonnull align 4 dereferenceable(4) %hitFraction) #6 {
entry:
  %retval = alloca i1, align 1
  %spherePos.addr = alloca ptr, align 8
  %radius.addr = alloca float, align 4
  %rayFrom.addr = alloca ptr, align 8
  %rayTo.addr = alloca ptr, align 8
  %hitFraction.addr = alloca ptr, align 8
  %rs = alloca %class.b3Vector3, align 16
  %rayDir = alloca %class.b3Vector3, align 16
  %A = alloca float, align 4
  %B = alloca float, align 4
  %C = alloca float, align 4
  %D = alloca float, align 4
  %t = alloca float, align 4
  store ptr %spherePos, ptr %spherePos.addr, align 8
  store float %radius, ptr %radius.addr, align 4
  store ptr %rayFrom, ptr %rayFrom.addr, align 8
  store ptr %rayTo, ptr %rayTo.addr, align 8
  store ptr %hitFraction, ptr %hitFraction.addr, align 8
  %0 = load ptr, ptr %rayFrom.addr, align 8
  %1 = load ptr, ptr %spherePos.addr, align 8
  %call = call { <2 x float>, <2 x float> } @_ZmiRK9b3Vector3S1_(ptr noundef nonnull align 16 dereferenceable(16) %0, ptr noundef nonnull align 16 dereferenceable(16) %1)
  %coerce.dive = getelementptr inbounds %class.b3Vector3, ptr %rs, i32 0, i32 0
  %coerce.dive1 = getelementptr inbounds %union.anon, ptr %coerce.dive, i32 0, i32 0
  %2 = getelementptr inbounds { <2 x float>, <2 x float> }, ptr %coerce.dive1, i32 0, i32 0
  %3 = extractvalue { <2 x float>, <2 x float> } %call, 0
  store <2 x float> %3, ptr %2, align 16
  %4 = getelementptr inbounds { <2 x float>, <2 x float> }, ptr %coerce.dive1, i32 0, i32 1
  %5 = extractvalue { <2 x float>, <2 x float> } %call, 1
  store <2 x float> %5, ptr %4, align 8
  %6 = load ptr, ptr %rayTo.addr, align 8
  %7 = load ptr, ptr %rayFrom.addr, align 8
  %call2 = call { <2 x float>, <2 x float> } @_ZmiRK9b3Vector3S1_(ptr noundef nonnull align 16 dereferenceable(16) %6, ptr noundef nonnull align 16 dereferenceable(16) %7)
  %coerce.dive3 = getelementptr inbounds %class.b3Vector3, ptr %rayDir, i32 0, i32 0
  %coerce.dive4 = getelementptr inbounds %union.anon, ptr %coerce.dive3, i32 0, i32 0
  %8 = getelementptr inbounds { <2 x float>, <2 x float> }, ptr %coerce.dive4, i32 0, i32 0
  %9 = extractvalue { <2 x float>, <2 x float> } %call2, 0
  store <2 x float> %9, ptr %8, align 16
  %10 = getelementptr inbounds { <2 x float>, <2 x float> }, ptr %coerce.dive4, i32 0, i32 1
  %11 = extractvalue { <2 x float>, <2 x float> } %call2, 1
  store <2 x float> %11, ptr %10, align 8
  %call5 = call noundef float @_Z5b3DotRK9b3Vector3S1_(ptr noundef nonnull align 16 dereferenceable(16) %rayDir, ptr noundef nonnull align 16 dereferenceable(16) %rayDir)
  store float %call5, ptr %A, align 4
  %call6 = call noundef float @_Z5b3DotRK9b3Vector3S1_(ptr noundef nonnull align 16 dereferenceable(16) %rs, ptr noundef nonnull align 16 dereferenceable(16) %rayDir)
  store float %call6, ptr %B, align 4
  %call7 = call noundef float @_Z5b3DotRK9b3Vector3S1_(ptr noundef nonnull align 16 dereferenceable(16) %rs, ptr noundef nonnull align 16 dereferenceable(16) %rs)
  %12 = load float, ptr %radius.addr, align 4
  %13 = load float, ptr %radius.addr, align 4
  %neg = fneg float %12
  %14 = call float @llvm.fmuladd.f32(float %neg, float %13, float %call7)
  store float %14, ptr %C, align 4
  %15 = load float, ptr %B, align 4
  %16 = load float, ptr %B, align 4
  %17 = load float, ptr %A, align 4
  %18 = load float, ptr %C, align 4
  %mul8 = fmul float %17, %18
  %neg9 = fneg float %mul8
  %19 = call float @llvm.fmuladd.f32(float %15, float %16, float %neg9)
  store float %19, ptr %D, align 4
  %20 = load float, ptr %D, align 4
  %conv = fpext float %20 to double
  %cmp = fcmp ogt double %conv, 0.000000e+00
  br i1 %cmp, label %if.then, label %if.end14

if.then:                                          ; preds = %entry
  %21 = load float, ptr %B, align 4
  %fneg = fneg float %21
  %22 = load float, ptr %D, align 4
  %call10 = call noundef float @_ZSt4sqrtf(float noundef %22)
  %sub = fsub float %fneg, %call10
  %23 = load float, ptr %A, align 4
  %div = fdiv float %sub, %23
  store float %div, ptr %t, align 4
  %24 = load float, ptr %t, align 4
  %cmp11 = fcmp oge float %24, 0.000000e+00
  br i1 %cmp11, label %land.lhs.true, label %if.end

land.lhs.true:                                    ; preds = %if.then
  %25 = load float, ptr %t, align 4
  %26 = load ptr, ptr %hitFraction.addr, align 8
  %27 = load float, ptr %26, align 4
  %cmp12 = fcmp olt float %25, %27
  br i1 %cmp12, label %if.then13, label %if.end

if.then13:                                        ; preds = %land.lhs.true
  %28 = load float, ptr %t, align 4
  %29 = load ptr, ptr %hitFraction.addr, align 8
  store float %28, ptr %29, align 4
  store i1 true, ptr %retval, align 1
  br label %return

if.end:                                           ; preds = %land.lhs.true, %if.then
  br label %if.end14

if.end14:                                         ; preds = %if.end, %entry
  store i1 false, ptr %retval, align 1
  br label %return

return:                                           ; preds = %if.end14, %if.then13
  %30 = load i1, ptr %retval, align 1
  ret i1 %30
}