; Function Attrs: mustprogress nofree nounwind willreturn memory(write, argmem: readwrite) uwtable
define dso_local noundef zeroext i1 @_Z16sphere_intersectRK9b3Vector3fS1_S1_Rf(ptr nocapture noundef nonnull readonly align 16 dereferenceable(16) %spherePos, float noundef %radius, ptr nocapture noundef nonnull readonly align 16 dereferenceable(16) %rayFrom, ptr nocapture noundef nonnull readonly align 16 dereferenceable(16) %rayTo, ptr nocapture noundef nonnull align 4 dereferenceable(4) %hitFraction) local_unnamed_addr #6 {
entry:
  %0 = load float, ptr %rayFrom, align 16
  %1 = load float, ptr %spherePos, align 16
  %sub.i = fsub float %0, %1
  %arrayidx2.i = getelementptr inbounds i8, ptr %rayFrom, i64 4
  %2 = load float, ptr %arrayidx2.i, align 4
  %arrayidx3.i = getelementptr inbounds i8, ptr %spherePos, i64 4
  %3 = load float, ptr %arrayidx3.i, align 4
  %sub4.i = fsub float %2, %3
  %arrayidx5.i = getelementptr inbounds i8, ptr %rayFrom, i64 8
  %4 = load float, ptr %arrayidx5.i, align 8
  %arrayidx6.i = getelementptr inbounds i8, ptr %spherePos, i64 8
  %5 = load float, ptr %arrayidx6.i, align 8
  %sub7.i = fsub float %4, %5
  %6 = load float, ptr %rayTo, align 16
  %sub.i10 = fsub float %6, %0
  %arrayidx2.i11 = getelementptr inbounds i8, ptr %rayTo, i64 4
  %7 = load float, ptr %arrayidx2.i11, align 4
  %sub4.i13 = fsub float %7, %2
  %arrayidx5.i14 = getelementptr inbounds i8, ptr %rayTo, i64 8
  %8 = load float, ptr %arrayidx5.i14, align 8
  %sub7.i16 = fsub float %8, %4
  %mul5.i.i = fmul float %sub4.i13, %sub4.i13
  %9 = tail call float @llvm.fmuladd.f32(float %sub.i10, float %sub.i10, float %mul5.i.i)
  %10 = tail call noundef float @llvm.fmuladd.f32(float %sub7.i16, float %sub7.i16, float %9)
  %mul5.i.i24 = fmul float %sub4.i, %sub4.i13
  %11 = tail call float @llvm.fmuladd.f32(float %sub.i, float %sub.i10, float %mul5.i.i24)
  %12 = tail call noundef float @llvm.fmuladd.f32(float %sub7.i, float %sub7.i16, float %11)
  %mul5.i.i29 = fmul float %sub4.i, %sub4.i
  %13 = tail call float @llvm.fmuladd.f32(float %sub.i, float %sub.i, float %mul5.i.i29)
  %14 = tail call noundef float @llvm.fmuladd.f32(float %sub7.i, float %sub7.i, float %13)
  %neg = fneg float %radius
  %15 = tail call float @llvm.fmuladd.f32(float %neg, float %radius, float %14)
  %16 = fneg float %10
  %neg9 = fmul float %15, %16
  %17 = tail call float @llvm.fmuladd.f32(float %12, float %12, float %neg9)
  %cmp = fcmp ogt float %17, 0.000000e+00
  br i1 %cmp, label %if.then, label %return

if.then:                                          ; preds = %entry
  %fneg = fneg float %12
  %call.i = tail call noundef float @sqrtf(float noundef %17) #19
  %sub = fsub float %fneg, %call.i
  %div = fdiv float %sub, %10
  %cmp11 = fcmp oge float %div, 0.000000e+00
  %18 = load float, ptr %hitFraction, align 4
  %cmp12 = fcmp olt float %div, %18
  %or.cond = select i1 %cmp11, i1 %cmp12, i1 false
  br i1 %or.cond, label %if.then13, label %return

if.then13:                                        ; preds = %if.then
  store float %div, ptr %hitFraction, align 4
  br label %return

return:                                           ; preds = %entry, %if.then, %if.then13
  %retval.0 = phi i1 [ true, %if.then13 ], [ false, %if.then ], [ false, %entry ]
  ret i1 %retval.0
}